target datalayout = "e-m:e-p270:32:32-p271:32:32-p272:64:64-i64:64-i128:128-f80:128-n8:16:32:64-S128"
target triple = "x86_64-pc-linux-gnu"

%struct.anon = type { [3 x double] }
%struct._generic_N_Vector = type { ptr, ptr, ptr }
%struct._N_VectorContent_Serial = type { i64, i32, ptr }
%struct._generic_SUNMatrix = type { ptr, ptr, ptr }
%struct._SUNMatrixContent_Dense = type { i64, i64, ptr, i64, ptr }

; Function Attrs: nounwind uwtable
define internal i32 @Jac(double noundef %0, ptr noundef %1, ptr noundef %2, ptr noundef %3, ptr noundef %4, ptr noundef %5, ptr noundef %6, ptr noundef %7) #0 {
  %9 = alloca double, align 8
  %10 = alloca ptr, align 8
  %11 = alloca ptr, align 8
  %12 = alloca ptr, align 8
  %13 = alloca ptr, align 8
  %14 = alloca ptr, align 8
  %15 = alloca ptr, align 8
  %16 = alloca ptr, align 8
  %17 = alloca double, align 8
  %18 = alloca double, align 8
  %19 = alloca ptr, align 8
  %20 = alloca double, align 8
  %21 = alloca double, align 8
  %22 = alloca double, align 8
  store double %0, ptr %9, align 8, !tbaa !18
  store ptr %1, ptr %10, align 8, !tbaa !16
  store ptr %2, ptr %11, align 8, !tbaa !16
  store ptr %3, ptr %12, align 8, !tbaa !12
  store ptr %4, ptr %13, align 8, !tbaa !11
  store ptr %5, ptr %14, align 8, !tbaa !16
  store ptr %6, ptr %15, align 8, !tbaa !16
  store ptr %7, ptr %16, align 8, !tbaa !16
  call void @llvm.lifetime.start.p0(i64 8, ptr %17) #6
  call void @llvm.lifetime.start.p0(i64 8, ptr %18) #6
  call void @llvm.lifetime.start.p0(i64 8, ptr %19) #6
  call void @llvm.lifetime.start.p0(i64 8, ptr %20) #6
  call void @llvm.lifetime.start.p0(i64 8, ptr %21) #6
  call void @llvm.lifetime.start.p0(i64 8, ptr %22) #6
  %23 = load ptr, ptr %10, align 8, !tbaa !16
  %24 = getelementptr inbounds nuw %struct._generic_N_Vector, ptr %23, i32 0, i32 0
  %25 = load ptr, ptr %24, align 8, !tbaa !22
  %26 = getelementptr inbounds nuw %struct._N_VectorContent_Serial, ptr %25, i32 0, i32 2
  %27 = load ptr, ptr %26, align 8, !tbaa !25
  %28 = getelementptr inbounds double, ptr %27, i64 1
  %29 = load double, ptr %28, align 8, !tbaa !18
  store double %29, ptr %17, align 8, !tbaa !18
  %30 = load ptr, ptr %10, align 8, !tbaa !16
  %31 = getelementptr inbounds nuw %struct._generic_N_Vector, ptr %30, i32 0, i32 0
  %32 = load ptr, ptr %31, align 8, !tbaa !22
  %33 = getelementptr inbounds nuw %struct._N_VectorContent_Serial, ptr %32, i32 0, i32 2
  %34 = load ptr, ptr %33, align 8, !tbaa !25
  %35 = getelementptr inbounds double, ptr %34, i64 2
  %36 = load double, ptr %35, align 8, !tbaa !18
  store double %36, ptr %18, align 8, !tbaa !18
  %37 = load ptr, ptr %13, align 8, !tbaa !11
  store ptr %37, ptr %19, align 8, !tbaa !11
  %38 = load ptr, ptr %19, align 8, !tbaa !11
  %39 = getelementptr inbounds nuw %struct.anon, ptr %38, i32 0, i32 0
  %40 = getelementptr inbounds [3 x double], ptr %39, i64 0, i64 0
  %41 = load double, ptr %40, align 8, !tbaa !18
  store double %41, ptr %20, align 8, !tbaa !18
  %42 = load ptr, ptr %19, align 8, !tbaa !11
  %43 = getelementptr inbounds nuw %struct.anon, ptr %42, i32 0, i32 0
  %44 = getelementptr inbounds [3 x double], ptr %43, i64 0, i64 1
  %45 = load double, ptr %44, align 8, !tbaa !18
  store double %45, ptr %21, align 8, !tbaa !18
  %46 = load ptr, ptr %19, align 8, !tbaa !11
  %47 = getelementptr inbounds nuw %struct.anon, ptr %46, i32 0, i32 0
  %48 = getelementptr inbounds [3 x double], ptr %47, i64 0, i64 2
  %49 = load double, ptr %48, align 8, !tbaa !18
  store double %49, ptr %22, align 8, !tbaa !18
  %50 = load double, ptr %20, align 8, !tbaa !18
  %51 = fneg double %50
  %52 = load ptr, ptr %12, align 8, !tbaa !12
  %53 = getelementptr inbounds nuw %struct._generic_SUNMatrix, ptr %52, i32 0, i32 0
  %54 = load ptr, ptr %53, align 8, !tbaa !36
  %55 = getelementptr inbounds nuw %struct._SUNMatrixContent_Dense, ptr %54, i32 0, i32 4
  %56 = load ptr, ptr %55, align 8, !tbaa !39
  %57 = getelementptr inbounds ptr, ptr %56, i64 0
  %58 = load ptr, ptr %57, align 8, !tbaa !42
  %59 = getelementptr inbounds double, ptr %58, i64 0
  store double %51, ptr %59, align 8, !tbaa !18
  %60 = load double, ptr %21, align 8, !tbaa !18
  %61 = load double, ptr %18, align 8, !tbaa !18
  %62 = fmul double %60, %61
  %63 = load ptr, ptr %12, align 8, !tbaa !12
  %64 = getelementptr inbounds nuw %struct._generic_SUNMatrix, ptr %63, i32 0, i32 0
  %65 = load ptr, ptr %64, align 8, !tbaa !36
  %66 = getelementptr inbounds nuw %struct._SUNMatrixContent_Dense, ptr %65, i32 0, i32 4
  %67 = load ptr, ptr %66, align 8, !tbaa !39
  %68 = getelementptr inbounds ptr, ptr %67, i64 1
  %69 = load ptr, ptr %68, align 8, !tbaa !42
  %70 = getelementptr inbounds double, ptr %69, i64 0
  store double %62, ptr %70, align 8, !tbaa !18
  %71 = load double, ptr %21, align 8, !tbaa !18
  %72 = load double, ptr %17, align 8, !tbaa !18
  %73 = fmul double %71, %72
  %74 = load ptr, ptr %12, align 8, !tbaa !12
  %75 = getelementptr inbounds nuw %struct._generic_SUNMatrix, ptr %74, i32 0, i32 0
  %76 = load ptr, ptr %75, align 8, !tbaa !36
  %77 = getelementptr inbounds nuw %struct._SUNMatrixContent_Dense, ptr %76, i32 0, i32 4
  %78 = load ptr, ptr %77, align 8, !tbaa !39
  %79 = getelementptr inbounds ptr, ptr %78, i64 2
  %80 = load ptr, ptr %79, align 8, !tbaa !42
  %81 = getelementptr inbounds double, ptr %80, i64 0
  store double %73, ptr %81, align 8, !tbaa !18
  %82 = load double, ptr %20, align 8, !tbaa !18
  %83 = load ptr, ptr %12, align 8, !tbaa !12
  %84 = getelementptr inbounds nuw %struct._generic_SUNMatrix, ptr %83, i32 0, i32 0
  %85 = load ptr, ptr %84, align 8, !tbaa !36
  %86 = getelementptr inbounds nuw %struct._SUNMatrixContent_Dense, ptr %85, i32 0, i32 4
  %87 = load ptr, ptr %86, align 8, !tbaa !39
  %88 = getelementptr inbounds ptr, ptr %87, i64 0
  %89 = load ptr, ptr %88, align 8, !tbaa !42
  %90 = getelementptr inbounds double, ptr %89, i64 1
  store double %82, ptr %90, align 8, !tbaa !18
  %91 = load double, ptr %21, align 8, !tbaa !18
  %92 = fneg double %91
  %93 = load double, ptr %18, align 8, !tbaa !18
  %94 = load double, ptr %22, align 8, !tbaa !18
  %95 = fmul double 2.000000e+00, %94
  %96 = load double, ptr %17, align 8, !tbaa !18
  %97 = fmul double %95, %96
  %98 = fneg double %97
  %99 = call double @llvm.fmuladd.f64(double %92, double %93, double %98)
  %100 = load ptr, ptr %12, align 8, !tbaa !12
  %101 = getelementptr inbounds nuw %struct._generic_SUNMatrix, ptr %100, i32 0, i32 0
  %102 = load ptr, ptr %101, align 8, !tbaa !36
  %103 = getelementptr inbounds nuw %struct._SUNMatrixContent_Dense, ptr %102, i32 0, i32 4
  %104 = load ptr, ptr %103, align 8, !tbaa !39
  %105 = getelementptr inbounds ptr, ptr %104, i64 1
  %106 = load ptr, ptr %105, align 8, !tbaa !42
  %107 = getelementptr inbounds double, ptr %106, i64 1
  store double %99, ptr %107, align 8, !tbaa !18
  %108 = load double, ptr %21, align 8, !tbaa !18
  %109 = fneg double %108
  %110 = load double, ptr %17, align 8, !tbaa !18
  %111 = fmul double %109, %110
  %112 = load ptr, ptr %12, align 8, !tbaa !12
  %113 = getelementptr inbounds nuw %struct._generic_SUNMatrix, ptr %112, i32 0, i32 0
  %114 = load ptr, ptr %113, align 8, !tbaa !36
  %115 = getelementptr inbounds nuw %struct._SUNMatrixContent_Dense, ptr %114, i32 0, i32 4
  %116 = load ptr, ptr %115, align 8, !tbaa !39
  %117 = getelementptr inbounds ptr, ptr %116, i64 2
  %118 = load ptr, ptr %117, align 8, !tbaa !42
  %119 = getelementptr inbounds double, ptr %118, i64 1
  store double %111, ptr %119, align 8, !tbaa !18
  %120 = load ptr, ptr %12, align 8, !tbaa !12
  %121 = getelementptr inbounds nuw %struct._generic_SUNMatrix, ptr %120, i32 0, i32 0
  %122 = load ptr, ptr %121, align 8, !tbaa !36
  %123 = getelementptr inbounds nuw %struct._SUNMatrixContent_Dense, ptr %122, i32 0, i32 4
  %124 = load ptr, ptr %123, align 8, !tbaa !39
  %125 = getelementptr inbounds ptr, ptr %124, i64 0
  %126 = load ptr, ptr %125, align 8, !tbaa !42
  %127 = getelementptr inbounds double, ptr %126, i64 2
  store double 0.000000e+00, ptr %127, align 8, !tbaa !18
  %128 = load double, ptr %22, align 8, !tbaa !18
  %129 = fmul double 2.000000e+00, %128
  %130 = load double, ptr %17, align 8, !tbaa !18
  %131 = fmul double %129, %130
  %132 = load ptr, ptr %12, align 8, !tbaa !12
  %133 = getelementptr inbounds nuw %struct._generic_SUNMatrix, ptr %132, i32 0, i32 0
  %134 = load ptr, ptr %133, align 8, !tbaa !36
  %135 = getelementptr inbounds nuw %struct._SUNMatrixContent_Dense, ptr %134, i32 0, i32 4
  %136 = load ptr, ptr %135, align 8, !tbaa !39
  %137 = getelementptr inbounds ptr, ptr %136, i64 1
  %138 = load ptr, ptr %137, align 8, !tbaa !42
  %139 = getelementptr inbounds double, ptr %138, i64 2
  store double %131, ptr %139, align 8, !tbaa !18
  %140 = load ptr, ptr %12, align 8, !tbaa !12
  %141 = getelementptr inbounds nuw %struct._generic_SUNMatrix, ptr %140, i32 0, i32 0
  %142 = load ptr, ptr %141, align 8, !tbaa !36
  %143 = getelementptr inbounds nuw %struct._SUNMatrixContent_Dense, ptr %142, i32 0, i32 4
  %144 = load ptr, ptr %143, align 8, !tbaa !39
  %145 = getelementptr inbounds ptr, ptr %144, i64 2
  %146 = load ptr, ptr %145, align 8, !tbaa !42
  %147 = getelementptr inbounds double, ptr %146, i64 2
  store double 0.000000e+00, ptr %147, align 8, !tbaa !18
  call void @llvm.lifetime.end.p0(i64 8, ptr %22) #6
  call void @llvm.lifetime.end.p0(i64 8, ptr %21) #6
  call void @llvm.lifetime.end.p0(i64 8, ptr %20) #6
  call void @llvm.lifetime.end.p0(i64 8, ptr %19) #6
  call void @llvm.lifetime.end.p0(i64 8, ptr %18) #6
  call void @llvm.lifetime.end.p0(i64 8, ptr %17) #6
  ret i32 0
}