; Function Attrs: mustprogress nofree norecurse nosync nounwind willreturn memory(readwrite, inaccessiblemem: none) uwtable
define internal noundef i32 @Jac(double %0, ptr noundef readonly captures(none) %1, ptr readnone captures(none) %2, ptr noundef readonly captures(none) %3, ptr noundef readonly captures(none) %4, ptr readnone captures(none) %5, ptr readnone captures(none) %6, ptr readnone captures(none) %7) #5 {
  %9 = load ptr, ptr %1, align 8, !tbaa !13
  %10 = getelementptr inbounds nuw i8, ptr %9, i64 16
  %11 = load ptr, ptr %10, align 8, !tbaa !16
  %12 = getelementptr inbounds nuw i8, ptr %11, i64 8
  %13 = load double, ptr %12, align 8, !tbaa !9
  %14 = getelementptr inbounds nuw i8, ptr %11, i64 16
  %15 = load double, ptr %14, align 8, !tbaa !9
  %16 = load double, ptr %4, align 8, !tbaa !9
  %17 = getelementptr inbounds nuw i8, ptr %4, i64 8
  %18 = load double, ptr %17, align 8, !tbaa !9
  %19 = getelementptr inbounds nuw i8, ptr %4, i64 16
  %20 = load double, ptr %19, align 8, !tbaa !9
  %21 = fneg double %16
  %22 = load ptr, ptr %3, align 8, !tbaa !24
  %23 = getelementptr inbounds nuw i8, ptr %22, i64 32
  %24 = load ptr, ptr %23, align 8, !tbaa !27
  %25 = load ptr, ptr %24, align 8, !tbaa !30
  store double %21, ptr %25, align 8, !tbaa !9
  %26 = fmul double %15, %18
  %27 = getelementptr inbounds nuw i8, ptr %24, i64 8
  %28 = load ptr, ptr %27, align 8, !tbaa !30
  store double %26, ptr %28, align 8, !tbaa !9
  %29 = fmul double %13, %18
  %30 = getelementptr inbounds nuw i8, ptr %24, i64 16
  %31 = load ptr, ptr %30, align 8, !tbaa !30
  store double %29, ptr %31, align 8, !tbaa !9
  %32 = getelementptr inbounds nuw i8, ptr %25, i64 8
  store double %16, ptr %32, align 8, !tbaa !9
  %33 = fneg double %18
  %34 = fmul double %20, 2.000000e+00
  %35 = fmul double %13, %34
  %36 = fneg double %35
  %37 = tail call double @llvm.fmuladd.f64(double %33, double %15, double %36)
  %38 = getelementptr inbounds nuw i8, ptr %28, i64 8
  store double %37, ptr %38, align 8, !tbaa !9
  %39 = fmul double %13, %33
  %40 = getelementptr inbounds nuw i8, ptr %31, i64 8
  store double %39, ptr %40, align 8, !tbaa !9
  %41 = getelementptr inbounds nuw i8, ptr %25, i64 16
  store double 0.000000e+00, ptr %41, align 8, !tbaa !9
  %42 = getelementptr inbounds nuw i8, ptr %28, i64 16
  store double %35, ptr %42, align 8, !tbaa !9
  %43 = getelementptr inbounds nuw i8, ptr %31, i64 16
  store double 0.000000e+00, ptr %43, align 8, !tbaa !9
  ret i32 0
}